; Function Attrs: nounwind uwtable
define internal ptr @get_type_modified_events(ptr readnone captures(none) %0, ptr readnone captures(none) %1) #0 {
  %3 = load ptr, ptr @g_type_modified_events, align 8, !tbaa !21
  %.not = icmp eq ptr %3, null
  br i1 %.not, label %4, label %6

4:                                                ; preds = %2
  %5 = load ptr, ptr @PyExc_RuntimeError, align 8, !tbaa !21
  tail call void @PyErr_SetString(ptr noundef %5, ptr noundef nonnull @.str.45) #6
  br label %_Py_NewRef.exit

6:                                                ; preds = %2
  %7 = load i32, ptr %3, align 8, !tbaa !22
  %8 = icmp slt i32 %7, 0
  br i1 %8, label %_Py_NewRef.exit, label %9

9:                                                ; preds = %6
  %10 = add nuw i32 %7, 1
  store i32 %10, ptr %3, align 8, !tbaa !22
  br label %_Py_NewRef.exit

_Py_NewRef.exit:                                  ; preds = %9, %6, %4
  ret ptr %3
}